; Function Attrs: mustprogress nounwind uwtable
define dso_local noundef i32 @_ZN4llvm11SlotTracker13getTypeIdSlotENS_9StringRefE(ptr noundef nonnull align 8 dereferenceable(356) %0, ptr %1, i64 %2) local_unnamed_addr #1 align 2 {
  %4 = getelementptr inbounds nuw i8, ptr %0, i64 96
  %5 = load ptr, ptr %4, align 8
  %.not.i = icmp eq ptr %5, null
  br i1 %.not.i, label %_ZN4llvm11SlotTracker23initializeIndexIfNeededEv.exit, label %6

6:                                                ; preds = %3
  %7 = tail call noundef i32 @_ZN4llvm11SlotTracker12processIndexEv(ptr noundef nonnull align 8 dereferenceable(356) %0)
  store ptr null, ptr %4, align 8
  br label %_ZN4llvm11SlotTracker23initializeIndexIfNeededEv.exit

_ZN4llvm11SlotTracker23initializeIndexIfNeededEv.exit: ; preds = %3, %6
  %8 = getelementptr inbounds nuw i8, ptr %0, i64 296
  %9 = tail call noundef i32 @_ZN4llvm13StringMapImpl4hashENS_9StringRefE(ptr %1, i64 %2) #25
  %10 = tail call noundef i32 @_ZNK4llvm13StringMapImpl7FindKeyENS_9StringRefEj(ptr noundef nonnull align 8 dereferenceable(24) %8, ptr %1, i64 %2, i32 noundef %9) #25
  %11 = icmp eq i32 %10, -1
  %12 = getelementptr inbounds i8, ptr %0, i64 304
  %13 = load i32, ptr %12, align 8
  %14 = zext i32 %13 to i64
  %15 = sext i32 %10 to i64
  %16 = icmp eq i64 %15, %14
  %17 = select i1 %11, i1 true, i1 %16
  br i1 %17, label %23, label %18

18:                                               ; preds = %_ZN4llvm11SlotTracker23initializeIndexIfNeededEv.exit
  %19 = load ptr, ptr %8, align 8
  %.sroa.0.0.i.i = getelementptr inbounds ptr, ptr %19, i64 %15
  %20 = load ptr, ptr %.sroa.0.0.i.i, align 8
  %21 = getelementptr inbounds nuw i8, ptr %20, i64 8
  %22 = load i32, ptr %21, align 8
  br label %23

23:                                               ; preds = %_ZN4llvm11SlotTracker23initializeIndexIfNeededEv.exit, %18
  %24 = phi i32 [ %22, %18 ], [ -1, %_ZN4llvm11SlotTracker23initializeIndexIfNeededEv.exit ]
  ret i32 %24
}